target datalayout = "e-m:e-p270:32:32-p271:32:32-p272:64:64-i64:64-i128:128-f80:128-n8:16:32:64-S128"
target triple = "x86_64-pc-linux-gnu"

%struct.freelist = type { ptr, ptr, i32 }
%struct.Halfedge = type { ptr, ptr, ptr, i32, i8, ptr, double, ptr }

@hfl = internal global %struct.freelist zeroinitializer, align 8
@ELhash = internal global ptr null, align 8
@sqrt_nsites = external global i32, align 4
@ELhashsize = internal global i32 0, align 4
@ELleftend = global ptr null, align 8
@ELrightend = global ptr null, align 8
@stderr = external global ptr, align 8
@.str = private unnamed_addr constant [58 x i8] c"integer overflow when trying to allocate %zu * %zu bytes\0A\00", align 1
@.str.1 = private unnamed_addr constant [49 x i8] c"out of memory when trying to allocate %zu bytes\0A\00", align 1

; Function Attrs: nounwind uwtable
define ptr @HEcreate(ptr noundef %0, i8 noundef signext %1) #0 {
  %3 = alloca ptr, align 8
  %4 = alloca i8, align 1
  %5 = alloca ptr, align 8
  store ptr %0, ptr %3, align 8, !tbaa !25
  store i8 %1, ptr %4, align 1, !tbaa !26
  call void @llvm.lifetime.start.p0(i64 8, ptr %5) #9
  %6 = call ptr @getfree(ptr noundef @hfl)
  store ptr %6, ptr %5, align 8, !tbaa !10
  %7 = load ptr, ptr %3, align 8, !tbaa !25
  %8 = load ptr, ptr %5, align 8, !tbaa !10
  %9 = getelementptr inbounds nuw %struct.Halfedge, ptr %8, i32 0, i32 2
  store ptr %7, ptr %9, align 8, !tbaa !27
  %10 = load i8, ptr %4, align 1, !tbaa !26
  %11 = load ptr, ptr %5, align 8, !tbaa !10
  %12 = getelementptr inbounds nuw %struct.Halfedge, ptr %11, i32 0, i32 4
  store i8 %10, ptr %12, align 4, !tbaa !28
  %13 = load ptr, ptr %5, align 8, !tbaa !10
  %14 = getelementptr inbounds nuw %struct.Halfedge, ptr %13, i32 0, i32 7
  store ptr null, ptr %14, align 8, !tbaa !29
  %15 = load ptr, ptr %5, align 8, !tbaa !10
  %16 = getelementptr inbounds nuw %struct.Halfedge, ptr %15, i32 0, i32 5
  store ptr null, ptr %16, align 8, !tbaa !30
  %17 = load ptr, ptr %5, align 8, !tbaa !10
  %18 = getelementptr inbounds nuw %struct.Halfedge, ptr %17, i32 0, i32 3
  store i32 0, ptr %18, align 8, !tbaa !31
  %19 = load ptr, ptr %5, align 8, !tbaa !10
  call void @llvm.lifetime.end.p0(i64 8, ptr %5) #9
  ret ptr %19
}

; Function Attrs: inlinehint nounwind uwtable
define internal ptr @gv_calloc(i64 noundef %0, i64 noundef %1) #4 {
  %3 = alloca i64, align 8
  %4 = alloca i64, align 8
  %5 = alloca ptr, align 8
  store i64 %0, ptr %3, align 8, !tbaa !20
  store i64 %1, ptr %4, align 8, !tbaa !20
  %6 = load i64, ptr %3, align 8, !tbaa !20
  %7 = icmp ugt i64 %6, 0
  br i1 %7, label %8, label %18

8:                                                ; preds = %2
  %9 = load i64, ptr %3, align 8, !tbaa !20
  %10 = udiv i64 -1, %9
  %11 = load i64, ptr %4, align 8, !tbaa !20
  %12 = icmp ult i64 %10, %11
  br i1 %12, label %13, label %18

13:                                               ; preds = %8
  %14 = load ptr, ptr @stderr, align 8, !tbaa !22
  %15 = load i64, ptr %3, align 8, !tbaa !20
  %16 = load i64, ptr %4, align 8, !tbaa !20
  %17 = call i32 (ptr, ptr, ...) @fprintf(ptr noundef %14, ptr noundef @.str, i64 noundef %15, i64 noundef %16) #9
  call void @graphviz_exit(i32 noundef 1) #10
  unreachable

18:                                               ; preds = %8, %2
  call void @llvm.lifetime.start.p0(i64 8, ptr %5) #9
  %19 = load i64, ptr %3, align 8, !tbaa !20
  %20 = load i64, ptr %4, align 8, !tbaa !20
  %21 = call noalias ptr @calloc(i64 noundef %19, i64 noundef %20) #11
  store ptr %21, ptr %5, align 8, !tbaa !24
  %22 = load i64, ptr %3, align 8, !tbaa !20
  %23 = icmp ugt i64 %22, 0
  br i1 %23, label %24, label %36

24:                                               ; preds = %18
  %25 = load i64, ptr %4, align 8, !tbaa !20
  %26 = icmp ugt i64 %25, 0
  br i1 %26, label %27, label %36

27:                                               ; preds = %24
  %28 = load ptr, ptr %5, align 8, !tbaa !24
  %29 = icmp eq ptr %28, null
  br i1 %29, label %30, label %36

30:                                               ; preds = %27
  %31 = load ptr, ptr @stderr, align 8, !tbaa !22
  %32 = load i64, ptr %3, align 8, !tbaa !20
  %33 = load i64, ptr %4, align 8, !tbaa !20
  %34 = mul i64 %32, %33
  %35 = call i32 (ptr, ptr, ...) @fprintf(ptr noundef %31, ptr noundef @.str.1, i64 noundef %34) #9
  call void @graphviz_exit(i32 noundef 1) #10
  unreachable

36:                                               ; preds = %27, %24, %18
  %37 = load ptr, ptr %5, align 8, !tbaa !24
  call void @llvm.lifetime.end.p0(i64 8, ptr %5) #9
  ret ptr %37
}

; Function Attrs: nounwind uwtable
define void @ELinitialize() #0 {
  %1 = alloca i32, align 4
  call void @llvm.lifetime.start.p0(i64 4, ptr %1) #9
  call void @freeinit(ptr noundef @hfl, i32 noundef 56)
  %2 = load i32, ptr @sqrt_nsites, align 4, !tbaa !8
  %3 = mul nsw i32 2, %2
  store i32 %3, ptr @ELhashsize, align 4, !tbaa !8
  %4 = load ptr, ptr @ELhash, align 8, !tbaa !3
  %5 = icmp eq ptr %4, null
  br i1 %5, label %6, label %10

6:                                                ; preds = %0
  %7 = load i32, ptr @ELhashsize, align 4, !tbaa !8
  %8 = sext i32 %7 to i64
  %9 = call ptr @gv_calloc(i64 noundef %8, i64 noundef 8)
  store ptr %9, ptr @ELhash, align 8, !tbaa !3
  br label %10

10:                                               ; preds = %6, %0
  store i32 0, ptr %1, align 4, !tbaa !8
  br label %11

11:                                               ; preds = %20, %10
  %12 = load i32, ptr %1, align 4, !tbaa !8
  %13 = load i32, ptr @ELhashsize, align 4, !tbaa !8
  %14 = icmp slt i32 %12, %13
  br i1 %14, label %15, label %23

15:                                               ; preds = %11
  %16 = load ptr, ptr @ELhash, align 8, !tbaa !3
  %17 = load i32, ptr %1, align 4, !tbaa !8
  %18 = sext i32 %17 to i64
  %19 = getelementptr inbounds ptr, ptr %16, i64 %18
  store ptr null, ptr %19, align 8, !tbaa !10
  br label %20

20:                                               ; preds = %15
  %21 = load i32, ptr %1, align 4, !tbaa !8
  %22 = add nsw i32 %21, 1
  store i32 %22, ptr %1, align 4, !tbaa !8
  br label %11, !llvm.loop !12

23:                                               ; preds = %11
  %24 = call ptr @HEcreate(ptr noundef null, i8 noundef signext 0)
  store ptr %24, ptr @ELleftend, align 8, !tbaa !10
  %25 = call ptr @HEcreate(ptr noundef null, i8 noundef signext 0)
  store ptr %25, ptr @ELrightend, align 8, !tbaa !10
  %26 = load ptr, ptr @ELleftend, align 8, !tbaa !10
  %27 = getelementptr inbounds nuw %struct.Halfedge, ptr %26, i32 0, i32 0
  store ptr null, ptr %27, align 8, !tbaa !14
  %28 = load ptr, ptr @ELrightend, align 8, !tbaa !10
  %29 = load ptr, ptr @ELleftend, align 8, !tbaa !10
  %30 = getelementptr inbounds nuw %struct.Halfedge, ptr %29, i32 0, i32 1
  store ptr %28, ptr %30, align 8, !tbaa !19
  %31 = load ptr, ptr @ELleftend, align 8, !tbaa !10
  %32 = load ptr, ptr @ELrightend, align 8, !tbaa !10
  %33 = getelementptr inbounds nuw %struct.Halfedge, ptr %32, i32 0, i32 0
  store ptr %31, ptr %33, align 8, !tbaa !14
  %34 = load ptr, ptr @ELrightend, align 8, !tbaa !10
  %35 = getelementptr inbounds nuw %struct.Halfedge, ptr %34, i32 0, i32 1
  store ptr null, ptr %35, align 8, !tbaa !19
  %36 = load ptr, ptr @ELleftend, align 8, !tbaa !10
  %37 = load ptr, ptr @ELhash, align 8, !tbaa !3
  %38 = getelementptr inbounds ptr, ptr %37, i64 0
  store ptr %36, ptr %38, align 8, !tbaa !10
  %39 = load ptr, ptr @ELrightend, align 8, !tbaa !10
  %40 = load ptr, ptr @ELhash, align 8, !tbaa !3
  %41 = load i32, ptr @ELhashsize, align 4, !tbaa !8
  %42 = sub nsw i32 %41, 1
  %43 = sext i32 %42 to i64
  %44 = getelementptr inbounds ptr, ptr %40, i64 %43
  store ptr %39, ptr %44, align 8, !tbaa !10
  call void @llvm.lifetime.end.p0(i64 4, ptr %1) #9
  ret void
}