; Function Attrs: nounwind uwtable
define void @ELinitialize() local_unnamed_addr #0 {
  tail call void @freeinit(ptr noundef nonnull @hfl, i32 noundef 56) #13
  %1 = load i32, ptr @sqrt_nsites, align 4, !tbaa !8
  %2 = shl i32 %1, 1
  store i32 %2, ptr @ELhashsize, align 4, !tbaa !8
  %3 = load ptr, ptr @ELhash, align 8, !tbaa !3
  %4 = icmp eq ptr %3, null
  br i1 %4, label %5, label %18

5:                                                ; preds = %0
  %6 = sext i32 %2 to i64
  %mul.ov.i = icmp slt i32 %1, 0
  br i1 %mul.ov.i, label %7, label %10

7:                                                ; preds = %5
  %8 = load ptr, ptr @stderr, align 8, !tbaa !10
  %9 = tail call i32 (ptr, ptr, ...) @fprintf(ptr noundef %8, ptr noundef nonnull @.str, i64 noundef range(i64 -2147483648, 2147483648) %6, i64 noundef 8) #14
  tail call fastcc void @graphviz_exit() #15
  unreachable

10:                                               ; preds = %5
  %11 = icmp ne i32 %1, 0
  %12 = tail call noalias ptr @calloc(i64 noundef range(i64 -2147483648, 2147483648) %6, i64 noundef 8) #16
  %13 = icmp eq ptr %12, null
  %or.cond3.i = and i1 %11, %13
  br i1 %or.cond3.i, label %14, label %gv_calloc.exit

14:                                               ; preds = %10
  %15 = load ptr, ptr @stderr, align 8, !tbaa !10
  %16 = shl nuw nsw i64 %6, 3
  %17 = tail call i32 (ptr, ptr, ...) @fprintf(ptr noundef %15, ptr noundef nonnull @.str.1, i64 noundef %16) #14
  tail call fastcc void @graphviz_exit() #15
  unreachable

gv_calloc.exit:                                   ; preds = %10
  store ptr %12, ptr @ELhash, align 8, !tbaa !3
  br label %18

18:                                               ; preds = %gv_calloc.exit, %0
  %19 = phi ptr [ %12, %gv_calloc.exit ], [ %3, %0 ]
  %20 = icmp sgt i32 %1, 0
  br i1 %20, label %.lr.ph, label %._crit_edge

.lr.ph:                                           ; preds = %18
  %smax = tail call i32 @llvm.smax.i32(i32 %2, i32 1)
  %21 = zext nneg i32 %smax to i64
  %22 = shl nuw nsw i64 %21, 3
  tail call void @llvm.memset.p0.i64(ptr noundef nonnull align 8 dereferenceable(1) %19, i8 0, i64 %22, i1 false), !tbaa !12
  br label %._crit_edge

._crit_edge:                                      ; preds = %.lr.ph, %18
  %23 = tail call ptr @getfree(ptr noundef nonnull @hfl) #13
  %24 = getelementptr inbounds nuw i8, ptr %23, i64 16
  store ptr null, ptr %24, align 8, !tbaa !14
  %25 = getelementptr inbounds nuw i8, ptr %23, i64 28
  store i8 0, ptr %25, align 4, !tbaa !19
  %26 = getelementptr inbounds nuw i8, ptr %23, i64 48
  store ptr null, ptr %26, align 8, !tbaa !20
  %27 = getelementptr inbounds nuw i8, ptr %23, i64 32
  store ptr null, ptr %27, align 8, !tbaa !21
  %28 = getelementptr inbounds nuw i8, ptr %23, i64 24
  store i32 0, ptr %28, align 8, !tbaa !22
  store ptr %23, ptr @ELleftend, align 8, !tbaa !12
  %29 = tail call ptr @getfree(ptr noundef nonnull @hfl) #13
  %30 = getelementptr inbounds nuw i8, ptr %29, i64 16
  store ptr null, ptr %30, align 8, !tbaa !14
  %31 = getelementptr inbounds nuw i8, ptr %29, i64 28
  store i8 0, ptr %31, align 4, !tbaa !19
  %32 = getelementptr inbounds nuw i8, ptr %29, i64 48
  store ptr null, ptr %32, align 8, !tbaa !20
  %33 = getelementptr inbounds nuw i8, ptr %29, i64 32
  store ptr null, ptr %33, align 8, !tbaa !21
  %34 = getelementptr inbounds nuw i8, ptr %29, i64 24
  store i32 0, ptr %34, align 8, !tbaa !22
  store ptr %29, ptr @ELrightend, align 8, !tbaa !12
  %35 = load ptr, ptr @ELleftend, align 8, !tbaa !12
  store ptr null, ptr %35, align 8, !tbaa !23
  %36 = load ptr, ptr @ELrightend, align 8, !tbaa !12
  %37 = load ptr, ptr @ELleftend, align 8, !tbaa !12
  %38 = getelementptr inbounds nuw i8, ptr %37, i64 8
  store ptr %36, ptr %38, align 8, !tbaa !24
  store ptr %37, ptr %36, align 8, !tbaa !23
  %39 = load ptr, ptr @ELrightend, align 8, !tbaa !12
  %40 = getelementptr inbounds nuw i8, ptr %39, i64 8
  store ptr null, ptr %40, align 8, !tbaa !24
  %41 = load ptr, ptr @ELhash, align 8, !tbaa !3
  store ptr %37, ptr %41, align 8, !tbaa !12
  %42 = load ptr, ptr @ELrightend, align 8, !tbaa !12
  %43 = load i32, ptr @ELhashsize, align 4, !tbaa !8
  %44 = sext i32 %43 to i64
  %45 = getelementptr ptr, ptr %41, i64 %44
  %46 = getelementptr i8, ptr %45, i64 -8
  store ptr %42, ptr %46, align 8, !tbaa !12
  ret void
}